; Function Attrs: mustprogress nounwind uwtable
define dso_local noundef ptr @LLVMBuildExtractValue(ptr noundef %0, ptr noundef %1, i32 noundef %2, ptr noundef %3) local_unnamed_addr #0 {
  %5 = alloca %"class.llvm::Twine", align 8
  %6 = alloca i32, align 4
  %7 = alloca %"class.llvm::Twine", align 8
  store i32 %2, ptr %6, align 4
  %8 = getelementptr inbounds nuw i8, ptr %7, i64 32
  %9 = getelementptr inbounds nuw i8, ptr %7, i64 33
  store i8 1, ptr %9, align 1
  %10 = load i8, ptr %3, align 1
  %.not.i = icmp eq i8 %10, 0
  br i1 %.not.i, label %_ZN4llvm5TwineC2EPKc.exit, label %11

11:                                               ; preds = %4
  store ptr %3, ptr %7, align 8
  br label %_ZN4llvm5TwineC2EPKc.exit

_ZN4llvm5TwineC2EPKc.exit:                        ; preds = %4, %11
  %storemerge.i = phi i8 [ 3, %11 ], [ 1, %4 ]
  store i8 %storemerge.i, ptr %8, align 8
  call void @llvm.lifetime.start.p0(i64 40, ptr nonnull %5)
  %12 = getelementptr inbounds nuw i8, ptr %0, i64 80
  %13 = load ptr, ptr %12, align 8
  %14 = load ptr, ptr %13, align 8
  %15 = getelementptr inbounds nuw i8, ptr %14, i64 80
  %16 = load ptr, ptr %15, align 8
  %17 = call noundef ptr %16(ptr noundef nonnull align 8 dereferenceable(8) %13, ptr noundef %1, ptr nonnull %6, i64 1) #35
  %.not.i3 = icmp eq ptr %17, null
  br i1 %.not.i3, label %18, label %_ZN4llvm13IRBuilderBase18CreateExtractValueEPNS_5ValueENS_8ArrayRefIjEERKNS_5TwineE.exit

18:                                               ; preds = %_ZN4llvm5TwineC2EPKc.exit
  %19 = getelementptr inbounds nuw i8, ptr %5, i64 32
  store i16 257, ptr %19, align 8
  %20 = call noundef ptr @_ZN4llvm16ExtractValueInst6CreateEPNS_5ValueENS_8ArrayRefIjEERKNS_5TwineENS_14InsertPositionE(ptr noundef %1, ptr nonnull %6, i64 1, ptr noundef nonnull align 8 dereferenceable(34) %5, ptr null, i64 0)
  %21 = getelementptr inbounds nuw i8, ptr %0, i64 88
  %22 = load ptr, ptr %21, align 8
  %23 = getelementptr inbounds nuw i8, ptr %0, i64 56
  %.sroa.0.0.copyload.i.i = load ptr, ptr %23, align 8
  %.sroa.2.0..sroa_idx.i.i = getelementptr inbounds nuw i8, ptr %0, i64 64
  %.sroa.2.0.copyload.i.i = load i64, ptr %.sroa.2.0..sroa_idx.i.i, align 8
  %24 = load ptr, ptr %22, align 8
  %25 = getelementptr inbounds nuw i8, ptr %24, i64 16
  %26 = load ptr, ptr %25, align 8
  call void %26(ptr noundef nonnull align 8 dereferenceable(8) %22, ptr noundef %20, ptr noundef nonnull align 8 dereferenceable(34) %7, ptr %.sroa.0.0.copyload.i.i, i64 %.sroa.2.0.copyload.i.i) #35
  %27 = load ptr, ptr %0, align 8
  %28 = call noundef i64 @_ZNK4llvm15SmallVectorBaseIjE4sizeEv(ptr noundef nonnull align 8 dereferenceable(128) %0) #35
  %29 = getelementptr inbounds %"struct.std::pair", ptr %27, i64 %28
  %.not10.i.i.i = icmp eq i64 %28, 0
  br i1 %.not10.i.i.i, label %_ZN4llvm13IRBuilderBase18CreateExtractValueEPNS_5ValueENS_8ArrayRefIjEERKNS_5TwineE.exit, label %.lr.ph.i.i.i

.lr.ph.i.i.i:                                     ; preds = %18, %.lr.ph.i.i.i
  %.011.i.i.i = phi ptr [ %33, %.lr.ph.i.i.i ], [ %27, %18 ]
  %30 = load i32, ptr %.011.i.i.i, align 8
  %31 = getelementptr inbounds nuw i8, ptr %.011.i.i.i, i64 8
  %32 = load ptr, ptr %31, align 8
  call void @_ZN4llvm11Instruction11setMetadataEjPNS_6MDNodeE(ptr noundef nonnull align 8 dereferenceable(72) %20, i32 noundef %30, ptr noundef %32) #35
  %33 = getelementptr inbounds nuw i8, ptr %.011.i.i.i, i64 16
  %.not.i.i.i = icmp eq ptr %33, %29
  br i1 %.not.i.i.i, label %_ZN4llvm13IRBuilderBase18CreateExtractValueEPNS_5ValueENS_8ArrayRefIjEERKNS_5TwineE.exit, label %.lr.ph.i.i.i

_ZN4llvm13IRBuilderBase18CreateExtractValueEPNS_5ValueENS_8ArrayRefIjEERKNS_5TwineE.exit: ; preds = %.lr.ph.i.i.i, %_ZN4llvm5TwineC2EPKc.exit, %18
  %.0.i = phi ptr [ %17, %_ZN4llvm5TwineC2EPKc.exit ], [ %20, %18 ], [ %20, %.lr.ph.i.i.i ]
  call void @llvm.lifetime.end.p0(i64 40, ptr nonnull %5)
  ret ptr %.0.i
}